target datalayout = "e-m:e-p270:32:32-p271:32:32-p272:64:64-i64:64-i128:128-f80:128-n8:16:32:64-S128"
target triple = "x86_64-unknown-linux-gnu"

%"class.cvc5::internal::NodeTemplate" = type { ptr }
%"class.cvc5::internal::NodeTemplate.28" = type { ptr }
%"class.cvc5::internal::Rational" = type { %class.__gmp_expr }
%class.__gmp_expr = type { [1 x %struct.__mpq_struct] }
%struct.__mpq_struct = type { %struct.__mpz_struct, %struct.__mpz_struct }
%struct.__mpz_struct = type { i32, i32, ptr }
%"class.cvc5::internal::theory::arith::linear::ArithVariables::VarInfo" = type <{ i32, [4 x i8], %"class.cvc5::internal::DeltaRational", ptr, ptr, i32, i32, i32, i32, %"class.cvc5::internal::NodeTemplate.28", i8, [7 x i8] }>
%"class.cvc5::internal::DeltaRational" = type { %"class.cvc5::internal::Rational", %"class.cvc5::internal::Rational" }
%"class.cvc5::internal::theory::arith::linear::BoundsInfo" = type { %"class.cvc5::internal::theory::arith::linear::BoundCounts", %"class.cvc5::internal::theory::arith::linear::BoundCounts" }
%"class.cvc5::internal::theory::arith::linear::BoundCounts" = type { i32, i32 }
%"class.cvc5::internal::theory::arith::linear::Constraint" = type <{ i32, i32, %"class.cvc5::internal::DeltaRational", ptr, %"class.cvc5::internal::NodeTemplate.28", ptr, i8, [7 x i8], i64, %"class.cvc5::internal::NodeTemplate", i64, i8, [7 x i8], %"struct.std::_Rb_tree_iterator", i8, [7 x i8] }>
%"struct.std::_Rb_tree_iterator" = type { ptr }

; Function Attrs: mustprogress nounwind uwtable
define linkonce_odr hidden void @_ZN4cvc58internal6theory5arith6linear11BoundCountsC2Ejj(ptr noundef nonnull align 4 dereferenceable(8) %this, i32 noundef %lbs, i32 noundef %ubs) unnamed_addr #5 comdat align 2 {
entry:
  %this.addr = alloca ptr, align 8
  %lbs.addr = alloca i32, align 4
  %ubs.addr = alloca i32, align 4
  store ptr %this, ptr %this.addr, align 8
  store i32 %lbs, ptr %lbs.addr, align 4
  store i32 %ubs, ptr %ubs.addr, align 4
  %this1 = load ptr, ptr %this.addr, align 8
  %d_lowerBoundCount = getelementptr inbounds %"class.cvc5::internal::theory::arith::linear::BoundCounts", ptr %this1, i32 0, i32 0
  %0 = load i32, ptr %lbs.addr, align 4
  store i32 %0, ptr %d_lowerBoundCount, align 4
  %d_upperBoundCount = getelementptr inbounds %"class.cvc5::internal::theory::arith::linear::BoundCounts", ptr %this1, i32 0, i32 1
  %1 = load i32, ptr %ubs.addr, align 4
  store i32 %1, ptr %d_upperBoundCount, align 4
  ret void
}

; Function Attrs: mustprogress nounwind uwtable
define linkonce_odr hidden noundef ptr @_ZNK10__gmp_exprIA1_12__mpq_structS1_E9get_mpq_tEv(ptr noundef nonnull align 8 dereferenceable(32) %this) #5 comdat align 2 {
entry:
  %this.addr = alloca ptr, align 8
  store ptr %this, ptr %this.addr, align 8
  %this1 = load ptr, ptr %this.addr, align 8
  %mp = getelementptr inbounds %class.__gmp_expr, ptr %this1, i32 0, i32 0
  %arraydecay = getelementptr inbounds [1 x %struct.__mpq_struct], ptr %mp, i64 0, i64 0
  ret ptr %arraydecay
}

; Function Attrs: mustprogress nounwind uwtable
define linkonce_odr hidden void @_ZN4cvc58internal6theory5arith6linear10BoundsInfoC2ENS3_11BoundCountsES5_(ptr noundef nonnull align 4 dereferenceable(16) %this, i64 %atBounds.coerce, i64 %hasBounds.coerce) unnamed_addr #5 comdat align 2 {
entry:
  %atBounds = alloca %"class.cvc5::internal::theory::arith::linear::BoundCounts", align 4
  %hasBounds = alloca %"class.cvc5::internal::theory::arith::linear::BoundCounts", align 4
  %this.addr = alloca ptr, align 8
  store i64 %atBounds.coerce, ptr %atBounds, align 4
  store i64 %hasBounds.coerce, ptr %hasBounds, align 4
  store ptr %this, ptr %this.addr, align 8
  %this1 = load ptr, ptr %this.addr, align 8
  %d_atBounds = getelementptr inbounds %"class.cvc5::internal::theory::arith::linear::BoundsInfo", ptr %this1, i32 0, i32 0
  call void @llvm.memcpy.p0.p0.i64(ptr align 4 %d_atBounds, ptr align 4 %atBounds, i64 8, i1 false)
  %d_hasBounds = getelementptr inbounds %"class.cvc5::internal::theory::arith::linear::BoundsInfo", ptr %this1, i32 0, i32 1
  call void @llvm.memcpy.p0.p0.i64(ptr align 4 %d_hasBounds, ptr align 4 %hasBounds, i64 8, i1 false)
  ret void
}

; Function Attrs: mustprogress uwtable
define hidden i64 @_ZNK4cvc58internal6theory5arith6linear14ArithVariables7VarInfo14hasBoundCountsEv(ptr noundef nonnull align 8 dereferenceable(113) %this) #4 align 2 {
entry:
  %retval = alloca %"class.cvc5::internal::theory::arith::linear::BoundCounts", align 4
  %this.addr = alloca ptr, align 8
  %lbIndc = alloca i32, align 4
  %ubIndc = alloca i32, align 4
  store ptr %this, ptr %this.addr, align 8
  %this1 = load ptr, ptr %this.addr, align 8
  %d_lb = getelementptr inbounds %"class.cvc5::internal::theory::arith::linear::ArithVariables::VarInfo", ptr %this1, i32 0, i32 3
  %0 = load ptr, ptr %d_lb, align 8
  %cmp = icmp ne ptr %0, null
  %cond = select i1 %cmp, i32 1, i32 0
  store i32 %cond, ptr %lbIndc, align 4
  %d_ub = getelementptr inbounds %"class.cvc5::internal::theory::arith::linear::ArithVariables::VarInfo", ptr %this1, i32 0, i32 4
  %1 = load ptr, ptr %d_ub, align 8
  %cmp2 = icmp ne ptr %1, null
  %cond3 = select i1 %cmp2, i32 1, i32 0
  store i32 %cond3, ptr %ubIndc, align 4
  %2 = load i32, ptr %lbIndc, align 4
  %3 = load i32, ptr %ubIndc, align 4
  call void @_ZN4cvc58internal6theory5arith6linear11BoundCountsC2Ejj(ptr noundef nonnull align 4 dereferenceable(8) %retval, i32 noundef %2, i32 noundef %3)
  %4 = load i64, ptr %retval, align 4
  ret i64 %4
}

; Function Attrs: mustprogress uwtable
define hidden i64 @_ZNK4cvc58internal6theory5arith6linear14ArithVariables7VarInfo13atBoundCountsEv(ptr noundef nonnull align 8 dereferenceable(113) %this) #4 align 2 {
entry:
  %retval = alloca %"class.cvc5::internal::theory::arith::linear::BoundCounts", align 4
  %this.addr = alloca ptr, align 8
  %lbIndc = alloca i32, align 4
  %ubIndc = alloca i32, align 4
  store ptr %this, ptr %this.addr, align 8
  %this1 = load ptr, ptr %this.addr, align 8
  %d_cmpAssignmentLB = getelementptr inbounds %"class.cvc5::internal::theory::arith::linear::ArithVariables::VarInfo", ptr %this1, i32 0, i32 5
  %0 = load i32, ptr %d_cmpAssignmentLB, align 8
  %cmp = icmp eq i32 %0, 0
  %cond = select i1 %cmp, i32 1, i32 0
  store i32 %cond, ptr %lbIndc, align 4
  %d_cmpAssignmentUB = getelementptr inbounds %"class.cvc5::internal::theory::arith::linear::ArithVariables::VarInfo", ptr %this1, i32 0, i32 6
  %1 = load i32, ptr %d_cmpAssignmentUB, align 4
  %cmp2 = icmp eq i32 %1, 0
  %cond3 = select i1 %cmp2, i32 1, i32 0
  store i32 %cond3, ptr %ubIndc, align 4
  %2 = load i32, ptr %lbIndc, align 4
  %3 = load i32, ptr %ubIndc, align 4
  call void @_ZN4cvc58internal6theory5arith6linear11BoundCountsC2Ejj(ptr noundef nonnull align 4 dereferenceable(8) %retval, i32 noundef %2, i32 noundef %3)
  %4 = load i64, ptr %retval, align 4
  ret i64 %4
}

; Function Attrs: mustprogress nounwind uwtable
define linkonce_odr hidden noundef i32 @_ZNK4cvc58internal8Rational3cmpERKS1_(ptr noundef nonnull align 8 dereferenceable(32) %this, ptr noundef nonnull align 8 dereferenceable(32) %x) #5 comdat align 2 {
entry:
  %this.addr = alloca ptr, align 8
  %x.addr = alloca ptr, align 8
  store ptr %this, ptr %this.addr, align 8
  store ptr %x, ptr %x.addr, align 8
  %this1 = load ptr, ptr %this.addr, align 8
  %d_value = getelementptr inbounds %"class.cvc5::internal::Rational", ptr %this1, i32 0, i32 0
  %call = call noundef ptr @_ZNK10__gmp_exprIA1_12__mpq_structS1_E9get_mpq_tEv(ptr noundef nonnull align 8 dereferenceable(32) %d_value)
  %0 = load ptr, ptr %x.addr, align 8
  %d_value2 = getelementptr inbounds %"class.cvc5::internal::Rational", ptr %0, i32 0, i32 0
  %call3 = call noundef ptr @_ZNK10__gmp_exprIA1_12__mpq_structS1_E9get_mpq_tEv(ptr noundef nonnull align 8 dereferenceable(32) %d_value2)
  %call4 = call i32 @__gmpq_cmp(ptr noundef %call, ptr noundef %call3) #20
  ret i32 %call4
}

; Function Attrs: mustprogress uwtable
define hidden { i64, i64 } @_ZNK4cvc58internal6theory5arith6linear14ArithVariables7VarInfo10boundsInfoEv(ptr noundef nonnull align 8 dereferenceable(113) %this) #4 align 2 {
entry:
  %retval = alloca %"class.cvc5::internal::theory::arith::linear::BoundsInfo", align 4
  %this.addr = alloca ptr, align 8
  %agg.tmp = alloca %"class.cvc5::internal::theory::arith::linear::BoundCounts", align 4
  %agg.tmp2 = alloca %"class.cvc5::internal::theory::arith::linear::BoundCounts", align 4
  store ptr %this, ptr %this.addr, align 8
  %this1 = load ptr, ptr %this.addr, align 8
  %call = call i64 @_ZNK4cvc58internal6theory5arith6linear14ArithVariables7VarInfo13atBoundCountsEv(ptr noundef nonnull align 8 dereferenceable(113) %this1)
  store i64 %call, ptr %agg.tmp, align 4
  %call3 = call i64 @_ZNK4cvc58internal6theory5arith6linear14ArithVariables7VarInfo14hasBoundCountsEv(ptr noundef nonnull align 8 dereferenceable(113) %this1)
  store i64 %call3, ptr %agg.tmp2, align 4
  %0 = load i64, ptr %agg.tmp, align 4
  %1 = load i64, ptr %agg.tmp2, align 4
  call void @_ZN4cvc58internal6theory5arith6linear10BoundsInfoC2ENS3_11BoundCountsES5_(ptr noundef nonnull align 4 dereferenceable(16) %retval, i64 %0, i64 %1)
  %2 = load { i64, i64 }, ptr %retval, align 4
  ret { i64, i64 } %2
}

; Function Attrs: mustprogress uwtable
define linkonce_odr hidden noundef i32 @_ZNK4cvc58internal13DeltaRational3cmpERKS1_(ptr noundef nonnull align 8 dereferenceable(64) %this, ptr noundef nonnull align 8 dereferenceable(64) %other) #4 comdat align 2 {
entry:
  %retval = alloca i32, align 4
  %this.addr = alloca ptr, align 8
  %other.addr = alloca ptr, align 8
  %cmp = alloca i32, align 4
  store ptr %this, ptr %this.addr, align 8
  store ptr %other, ptr %other.addr, align 8
  %this1 = load ptr, ptr %this.addr, align 8
  %c = getelementptr inbounds %"class.cvc5::internal::DeltaRational", ptr %this1, i32 0, i32 0
  %0 = load ptr, ptr %other.addr, align 8
  %c2 = getelementptr inbounds %"class.cvc5::internal::DeltaRational", ptr %0, i32 0, i32 0
  %call = call noundef i32 @_ZNK4cvc58internal8Rational3cmpERKS1_(ptr noundef nonnull align 8 dereferenceable(32) %c, ptr noundef nonnull align 8 dereferenceable(32) %c2)
  store i32 %call, ptr %cmp, align 4
  %1 = load i32, ptr %cmp, align 4
  %cmp3 = icmp eq i32 %1, 0
  br i1 %cmp3, label %if.then, label %if.else

if.then:                                          ; preds = %entry
  %k = getelementptr inbounds %"class.cvc5::internal::DeltaRational", ptr %this1, i32 0, i32 1
  %2 = load ptr, ptr %other.addr, align 8
  %k4 = getelementptr inbounds %"class.cvc5::internal::DeltaRational", ptr %2, i32 0, i32 1
  %call5 = call noundef i32 @_ZNK4cvc58internal8Rational3cmpERKS1_(ptr noundef nonnull align 8 dereferenceable(32) %k, ptr noundef nonnull align 8 dereferenceable(32) %k4)
  store i32 %call5, ptr %retval, align 4
  br label %return

if.else:                                          ; preds = %entry
  %3 = load i32, ptr %cmp, align 4
  store i32 %3, ptr %retval, align 4
  br label %return

return:                                           ; preds = %if.else, %if.then
  %4 = load i32, ptr %retval, align 4
  ret i32 %4
}

; Function Attrs: mustprogress nounwind uwtable
define linkonce_odr hidden noundef nonnull align 8 dereferenceable(64) ptr @_ZNK4cvc58internal6theory5arith6linear10Constraint8getValueEv(ptr noundef nonnull align 8 dereferenceable(145) %this) #5 comdat align 2 {
entry:
  %this.addr = alloca ptr, align 8
  store ptr %this, ptr %this.addr, align 8
  %this1 = load ptr, ptr %this.addr, align 8
  %d_value = getelementptr inbounds %"class.cvc5::internal::theory::arith::linear::Constraint", ptr %this1, i32 0, i32 2
  ret ptr %d_value
}

; Function Attrs: mustprogress uwtable
define hidden noundef zeroext i1 @_ZN4cvc58internal6theory5arith6linear14ArithVariables7VarInfo13setLowerBoundEPNS3_10ConstraintERNS3_10BoundsInfoE(ptr noundef nonnull align 8 dereferenceable(113) %this, ptr noundef %lb, ptr noundef nonnull align 4 dereferenceable(16) %prev) #4 align 2 {
entry:
  %this.addr = alloca ptr, align 8
  %lb.addr = alloca ptr, align 8
  %prev.addr = alloca ptr, align 8
  %wasNull = alloca i8, align 1
  %isNull = alloca i8, align 1
  %cmpLB = alloca i32, align 4
  %lbChanged = alloca i8, align 1
  %ref.tmp = alloca %"class.cvc5::internal::theory::arith::linear::BoundsInfo", align 4
  store ptr %this, ptr %this.addr, align 8
  store ptr %lb, ptr %lb.addr, align 8
  store ptr %prev, ptr %prev.addr, align 8
  %this1 = load ptr, ptr %this.addr, align 8
  %d_lb = getelementptr inbounds %"class.cvc5::internal::theory::arith::linear::ArithVariables::VarInfo", ptr %this1, i32 0, i32 3
  %0 = load ptr, ptr %d_lb, align 8
  %cmp = icmp eq ptr %0, null
  %frombool = zext i1 %cmp to i8
  store i8 %frombool, ptr %wasNull, align 1
  %1 = load ptr, ptr %lb.addr, align 8
  %cmp2 = icmp eq ptr %1, null
  %frombool3 = zext i1 %cmp2 to i8
  store i8 %frombool3, ptr %isNull, align 1
  %2 = load i8, ptr %isNull, align 1
  %tobool = trunc i8 %2 to i1
  br i1 %tobool, label %cond.true, label %cond.false

cond.true:                                        ; preds = %entry
  br label %cond.end

cond.false:                                       ; preds = %entry
  %d_assignment = getelementptr inbounds %"class.cvc5::internal::theory::arith::linear::ArithVariables::VarInfo", ptr %this1, i32 0, i32 2
  %3 = load ptr, ptr %lb.addr, align 8
  %call = call noundef nonnull align 8 dereferenceable(64) ptr @_ZNK4cvc58internal6theory5arith6linear10Constraint8getValueEv(ptr noundef nonnull align 8 dereferenceable(145) %3)
  %call4 = call noundef i32 @_ZNK4cvc58internal13DeltaRational3cmpERKS1_(ptr noundef nonnull align 8 dereferenceable(64) %d_assignment, ptr noundef nonnull align 8 dereferenceable(64) %call)
  br label %cond.end

cond.end:                                         ; preds = %cond.false, %cond.true
  %cond = phi i32 [ 1, %cond.true ], [ %call4, %cond.false ]
  store i32 %cond, ptr %cmpLB, align 4
  %4 = load i8, ptr %wasNull, align 1
  %tobool5 = trunc i8 %4 to i1
  %conv = zext i1 %tobool5 to i32
  %5 = load i8, ptr %isNull, align 1
  %tobool6 = trunc i8 %5 to i1
  %conv7 = zext i1 %tobool6 to i32
  %cmp8 = icmp ne i32 %conv, %conv7
  br i1 %cmp8, label %lor.end14, label %lor.rhs

lor.rhs:                                          ; preds = %cond.end
  %6 = load i32, ptr %cmpLB, align 4
  %d_cmpAssignmentLB = getelementptr inbounds %"class.cvc5::internal::theory::arith::linear::ArithVariables::VarInfo", ptr %this1, i32 0, i32 5
  %7 = load i32, ptr %d_cmpAssignmentLB, align 8
  %cmp9 = icmp ne i32 %6, %7
  br i1 %cmp9, label %land.rhs, label %land.end

land.rhs:                                         ; preds = %lor.rhs
  %8 = load i32, ptr %cmpLB, align 4
  %cmp10 = icmp eq i32 %8, 0
  br i1 %cmp10, label %lor.end, label %lor.rhs11

lor.rhs11:                                        ; preds = %land.rhs
  %d_cmpAssignmentLB12 = getelementptr inbounds %"class.cvc5::internal::theory::arith::linear::ArithVariables::VarInfo", ptr %this1, i32 0, i32 5
  %9 = load i32, ptr %d_cmpAssignmentLB12, align 8
  %cmp13 = icmp eq i32 %9, 0
  br label %lor.end

lor.end:                                          ; preds = %lor.rhs11, %land.rhs
  %10 = phi i1 [ true, %land.rhs ], [ %cmp13, %lor.rhs11 ]
  br label %land.end

land.end:                                         ; preds = %lor.end, %lor.rhs
  %11 = phi i1 [ false, %lor.rhs ], [ %10, %lor.end ]
  br label %lor.end14

lor.end14:                                        ; preds = %land.end, %cond.end
  %12 = phi i1 [ true, %cond.end ], [ %11, %land.end ]
  %frombool15 = zext i1 %12 to i8
  store i8 %frombool15, ptr %lbChanged, align 1
  %13 = load i8, ptr %lbChanged, align 1
  %tobool16 = trunc i8 %13 to i1
  br i1 %tobool16, label %if.then, label %if.end

if.then:                                          ; preds = %lor.end14
  %call17 = call { i64, i64 } @_ZNK4cvc58internal6theory5arith6linear14ArithVariables7VarInfo10boundsInfoEv(ptr noundef nonnull align 8 dereferenceable(113) %this1)
  %14 = getelementptr inbounds { i64, i64 }, ptr %ref.tmp, i32 0, i32 0
  %15 = extractvalue { i64, i64 } %call17, 0
  store i64 %15, ptr %14, align 4
  %16 = getelementptr inbounds { i64, i64 }, ptr %ref.tmp, i32 0, i32 1
  %17 = extractvalue { i64, i64 } %call17, 1
  store i64 %17, ptr %16, align 4
  %18 = load ptr, ptr %prev.addr, align 8
  call void @llvm.memcpy.p0.p0.i64(ptr align 4 %18, ptr align 4 %ref.tmp, i64 16, i1 false)
  br label %if.end

if.end:                                           ; preds = %if.then, %lor.end14
  %19 = load ptr, ptr %lb.addr, align 8
  %d_lb18 = getelementptr inbounds %"class.cvc5::internal::theory::arith::linear::ArithVariables::VarInfo", ptr %this1, i32 0, i32 3
  store ptr %19, ptr %d_lb18, align 8
  %20 = load i32, ptr %cmpLB, align 4
  %d_cmpAssignmentLB19 = getelementptr inbounds %"class.cvc5::internal::theory::arith::linear::ArithVariables::VarInfo", ptr %this1, i32 0, i32 5
  store i32 %20, ptr %d_cmpAssignmentLB19, align 8
  %21 = load i8, ptr %lbChanged, align 1
  %tobool20 = trunc i8 %21 to i1
  ret i1 %tobool20
}