; Function Attrs: mustprogress nofree nounwind willreturn memory(read, argmem: readwrite) uwtable
define hidden noundef zeroext i1 @_ZN4cvc58internal6theory5arith6linear14ArithVariables7VarInfo13setLowerBoundEPNS3_10ConstraintERNS3_10BoundsInfoE(ptr noundef nonnull align 8 dereferenceable(113) %this, ptr noundef %lb, ptr nocapture noundef nonnull writeonly align 4 dereferenceable(16) %prev) local_unnamed_addr #12 align 2 {
entry:
  %d_lb = getelementptr inbounds i8, ptr %this, i64 72
  %0 = load ptr, ptr %d_lb, align 8
  %cmp2 = icmp ne ptr %lb, null
  br i1 %cmp2, label %cond.false, label %cond.end

cond.false:                                       ; preds = %entry
  %d_assignment = getelementptr inbounds i8, ptr %this, i64 8
  %d_value.i = getelementptr inbounds i8, ptr %lb, i64 8
  %call4.i.i = tail call noundef i32 @__gmpq_cmp(ptr noundef nonnull %d_assignment, ptr noundef nonnull %d_value.i) #28
  %cmp3.i = icmp eq i32 %call4.i.i, 0
  br i1 %cmp3.i, label %if.then.i, label %cond.end.thr_comm

if.then.i:                                        ; preds = %cond.false
  %k.i = getelementptr inbounds i8, ptr %this, i64 40
  %k4.i = getelementptr inbounds i8, ptr %lb, i64 40
  %call4.i3.i = tail call noundef i32 @__gmpq_cmp(ptr noundef nonnull %k.i, ptr noundef nonnull %k4.i) #28
  br label %cond.end.thr_comm

cond.end.thr_comm:                                ; preds = %cond.false, %if.then.i
  %cond.ph = phi i32 [ %call4.i.i, %cond.false ], [ %call4.i3.i, %if.then.i ]
  %.not = icmp eq ptr %0, null
  br i1 %.not, label %if.then, label %lor.rhs

cond.end:                                         ; preds = %entry
  %.not15 = icmp eq ptr %0, null
  br i1 %.not15, label %lor.rhs, label %if.then

lor.rhs:                                          ; preds = %cond.end.thr_comm, %cond.end
  %cond9 = phi i32 [ %cond.ph, %cond.end.thr_comm ], [ 1, %cond.end ]
  %d_cmpAssignmentLB = getelementptr inbounds i8, ptr %this, i64 88
  %1 = load i32, ptr %d_cmpAssignmentLB, align 8
  %cmp9.not = icmp eq i32 %cond9, %1
  br i1 %cmp9.not, label %if.end, label %lor.end14

lor.end14:                                        ; preds = %lor.rhs
  %cmp10 = icmp eq i32 %cond9, 0
  %cmp13 = icmp eq i32 %1, 0
  %spec.select = or i1 %cmp10, %cmp13
  br i1 %spec.select, label %if.then, label %if.end

if.then:                                          ; preds = %cond.end.thr_comm, %cond.end, %lor.end14
  %cond812 = phi i32 [ %cond9, %lor.end14 ], [ %cond.ph, %cond.end.thr_comm ], [ 1, %cond.end ]
  %2 = phi i1 [ %cmp2, %lor.end14 ], [ false, %cond.end.thr_comm ], [ true, %cond.end ]
  %d_cmpAssignmentLB.i.i = getelementptr inbounds i8, ptr %this, i64 88
  %3 = load i32, ptr %d_cmpAssignmentLB.i.i, align 8
  %cmp.i.i = icmp eq i32 %3, 0
  %d_cmpAssignmentUB.i.i = getelementptr inbounds i8, ptr %this, i64 92
  %4 = load i32, ptr %d_cmpAssignmentUB.i.i, align 4
  %cmp2.i.i = icmp eq i32 %4, 0
  %retval.sroa.2.0.insert.shift.i.i = select i1 %cmp2.i.i, i64 4294967296, i64 0
  %retval.sroa.0.0.insert.ext.i.i = zext i1 %cmp.i.i to i64
  %retval.sroa.0.0.insert.insert.i.i = or disjoint i64 %retval.sroa.2.0.insert.shift.i.i, %retval.sroa.0.0.insert.ext.i.i
  %d_ub.i.i = getelementptr inbounds i8, ptr %this, i64 80
  %5 = load ptr, ptr %d_ub.i.i, align 8
  %cmp2.not.not.i.i = icmp eq ptr %5, null
  %retval.sroa.2.0.insert.shift.i1.i = select i1 %cmp2.not.not.i.i, i64 0, i64 4294967296
  %retval.sroa.0.0.insert.ext.i2.i = zext i1 %2 to i64
  %retval.sroa.0.0.insert.insert.i3.i = or disjoint i64 %retval.sroa.2.0.insert.shift.i1.i, %retval.sroa.0.0.insert.ext.i2.i
  store i64 %retval.sroa.0.0.insert.insert.i.i, ptr %prev, align 4
  %ref.tmp.sroa.2.0..sroa_idx = getelementptr inbounds i8, ptr %prev, i64 8
  store i64 %retval.sroa.0.0.insert.insert.i3.i, ptr %ref.tmp.sroa.2.0..sroa_idx, align 4
  br label %if.end

if.end:                                           ; preds = %lor.rhs, %if.then, %lor.end14
  %6 = phi i1 [ true, %if.then ], [ false, %lor.end14 ], [ false, %lor.rhs ]
  %cond811 = phi i32 [ %cond812, %if.then ], [ %cond9, %lor.end14 ], [ %cond9, %lor.rhs ]
  store ptr %lb, ptr %d_lb, align 8
  %d_cmpAssignmentLB19 = getelementptr inbounds i8, ptr %this, i64 88
  store i32 %cond811, ptr %d_cmpAssignmentLB19, align 8
  ret i1 %6
}